ccopy_reg
_reconstructor
p0
(cgame
PlayerState
p1
c__builtin__
object
p2
Ntp3
Rp4
(dp5
S'food'
p6
I14
sS'party'
p7
I2
sS'kills'
p8
I0
sS'ammo'
p9
I6
sS'days'
p10
I2
sb.ccopy_reg
_reconstructor
p0
(cgame
PlayerState
p1
c__builtin__
object
p2
Ntp3
Rp4
(dp5
S'food'
p6
I6
sS'party'
p7
I0
sS'kills'
p8
I0
sS'ammo'
p9
I0
sS'days'
p10
I0
sb.ccopy_reg
_reconstructor
p0
(cstreetfactory
Street
p1
c__builtin__
object
p2
Ntp3
Rp4
(dp5
S'current_house'
p6
I0
sS'name'
p7
S'Jewell Village Loop'
p8
sS'house_list'
p9
(lp10
g0
(chouse
House
p11
g2
Ntp12
Rp13
(dp14
S'current_room'
p15
I0
sS'room_list'
p16
(lp17
g0
(chouse
Room
p18
g2
Ntp19
Rp20
(dp21
S'food'
p22
I10
sS'visited'
p23
I00
sS'zombies'
p24
I0
sS'ammo'
p25
I0
sS'people'
p26
I0
sbag0
(g18
g2
Ntp27
Rp28
(dp29
g22
I8
sg23
I00
sg24
I0
sg25
I0
sg26
I0
sbag0
(g18
g2
Ntp30
Rp31
(dp32
g22
I0
sg23
I00
sg24
I4
sg25
I0
sg26
I0
sbag0
(g18
g2
Ntp33
Rp34
(dp35
g22
I0
sg23
I00
sg24
I0
sg25
I0
sg26
I0
sbag0
(g18
g2
Ntp36
Rp37
(dp38
g22
I2
sg23
I00
sg24
I0
sg25
I0
sg26
I0
sbag0
(g18
g2
Ntp39
Rp40
(dp41
g22
I0
sg23
I00
sg24
I0
sg25
I0
sg26
I0
sbag0
(g18
g2
Ntp42
Rp43
(dp44
g22
I0
sg23
I00
sg24
I0
sg25
I0
sg26
I0
sbasS'num_of_rooms'
p45
I7
sbag0
(g11
g2
Ntp46
Rp47
(dp48
g15
I0
sg16
(lp49
g0
(g18
g2
Ntp50
Rp51
(dp52
g22
I5
sg23
I00
sg24
I0
sg25
I1
sg26
I0
sbag0
(g18
g2
Ntp53
Rp54
(dp55
g22
I0
sg23
I00
sg24
I0
sg25
I0
sg26
I0
sbag0
(g18
g2
Ntp56
Rp57
(dp58
g22
I3
sg23
I00
sg24
I0
sg25
I0
sg26
I0
sbag0
(g18
g2
Ntp59
Rp60
(dp61
g22
I0
sg23
I00
sg24
I0
sg25
I0
sg26
I0
sbag0
(g18
g2
Ntp62
Rp63
(dp64
g22
I1
sg23
I00
sg24
I0
sg25
I2
sg26
I0
sbag0
(g18
g2
Ntp65
Rp66
(dp67
g22
I3
sg23
I00
sg24
I0
sg25
I0
sg26
I0
sbag0
(g18
g2
Ntp68
Rp69
(dp70
g22
I0
sg23
I00
sg24
I1
sg25
I0
sg26
I0
sbag0
(g18
g2
Ntp71
Rp72
(dp73
g22
I0
sg23
I00
sg24
I0
sg25
I0
sg26
I2
sbag0
(g18
g2
Ntp74
Rp75
(dp76
g22
I0
sg23
I00
sg24
I0
sg25
I0
sg26
I0
sbag0
(g18
g2
Ntp77
Rp78
(dp79
g22
I0
sg23
I00
sg24
I0
sg25
I0
sg26
I0
sbag0
(g18
g2
Ntp80
Rp81
(dp82
g22
I0
sg23
I00
sg24
I0
sg25
I0
sg26
I0
sbag0
(g18
g2
Ntp83
Rp84
(dp85
g22
I0
sg23
I00
sg24
I0
sg25
I2
sg26
I3
sbag0
(g18
g2
Ntp86
Rp87
(dp88
g22
I0
sg23
I00
sg24
I0
sg25
I0
sg26
I0
sbasg45
I13
sbag0
(g11
g2
Ntp89
Rp90
(dp91
g15
I0
sg16
(lp92
g0
(g18
g2
Ntp93
Rp94
(dp95
g22
I10
sg23
I00
sg24
I1
sg25
I0
sg26
I0
sbag0
(g18
g2
Ntp96
Rp97
(dp98
g22
I8
sg23
I00
sg24
I0
sg25
I0
sg26
I0
sbag0
(g18
g2
Ntp99
Rp100
(dp101
g22
I0
sg23
I00
sg24
I0
sg25
I0
sg26
I0
sbag0
(g18
g2
Ntp102
Rp103
(dp104
g22
I5
sg23
I00
sg24
I5
sg25
I0
sg26
I0
sbag0
(g18
g2
Ntp105
Rp106
(dp107
g22
I1
sg23
I00
sg24
I0
sg25
I0
sg26
I1
sbag0
(g18
g2
Ntp108
Rp109
(dp110
g22
I3
sg23
I00
sg24
I0
sg25
I0
sg26
I0
sbag0
(g18
g2
Ntp111
Rp112
(dp113
g22
I4
sg23
I00
sg24
I4
sg25
I0
sg26
I0
sbag0
(g18
g2
Ntp114
Rp115
(dp116
g22
I0
sg23
I00
sg24
I5
sg25
I0
sg26
I0
sbag0
(g18
g2
Ntp117
Rp118
(dp119
g22
I1
sg23
I00
sg24
I0
sg25
I0
sg26
I0
sbasg45
I9
sbag0
(g11
g2
Ntp120
Rp121
(dp122
g15
I0
sg16
(lp123
g0
(g18
g2
Ntp124
Rp125
(dp126
g22
I6
sg23
I00
sg24
I0
sg25
I0
sg26
I0
sbag0
(g18
g2
Ntp127
Rp128
(dp129
g22
I0
sg23
I00
sg24
I1
sg25
I0
sg26
I0
sbag0
(g18
g2
Ntp130
Rp131
(dp132
g22
I8
sg23
I00
sg24
I0
sg25
I0
sg26
I0
sbag0
(g18
g2
Ntp133
Rp134
(dp135
g22
I6
sg23
I00
sg24
I0
sg25
I0
sg26
I0
sbag0
(g18
g2
Ntp136
Rp137
(dp138
g22
I0
sg23
I00
sg24
I4
sg25
I0
sg26
I0
sbag0
(g18
g2
Ntp139
Rp140
(dp141
g22
I3
sg23
I00
sg24
I0
sg25
I0
sg26
I3
sbag0
(g18
g2
Ntp142
Rp143
(dp144
g22
I0
sg23
I00
sg24
I0
sg25
I0
sg26
I2
sbag0
(g18
g2
Ntp145
Rp146
(dp147
g22
I0
sg23
I00
sg24
I5
sg25
I1
sg26
I0
sbag0
(g18
g2
Ntp148
Rp149
(dp150
g22
I0
sg23
I00
sg24
I0
sg25
I0
sg26
I0
sbag0
(g18
g2
Ntp151
Rp152
(dp153
g22
I0
sg23
I00
sg24
I4
sg25
I0
sg26
I0
sbag0
(g18
g2
Ntp154
Rp155
(dp156
g22
I0
sg23
I00
sg24
I0
sg25
I0
sg26
I0
sbasg45
I11
sbag0
(g11
g2
Ntp157
Rp158
(dp159
g15
I0
sg16
(lp160
g0
(g18
g2
Ntp161
Rp162
(dp163
g22
I4
sg23
I00
sg24
I0
sg25
I3
sg26
I0
sbag0
(g18
g2
Ntp164
Rp165
(dp166
g22
I8
sg23
I00
sg24
I0
sg25
I1
sg26
I0
sbag0
(g18
g2
Ntp167
Rp168
(dp169
g22
I7
sg23
I00
sg24
I0
sg25
I0
sg26
I0
sbag0
(g18
g2
Ntp170
Rp171
(dp172
g22
I6
sg23
I00
sg24
I0
sg25
I0
sg26
I0
sbag0
(g18
g2
Ntp173
Rp174
(dp175
g22
I6
sg23
I00
sg24
I0
sg25
I0
sg26
I0
sbag0
(g18
g2
Ntp176
Rp177
(dp178
g22
I0
sg23
I00
sg24
I0
sg25
I0
sg26
I0
sbag0
(g18
g2
Ntp179
Rp180
(dp181
g22
I0
sg23
I00
sg24
I0
sg25
I0
sg26
I2
sbasg45
I7
sbag0
(g11
g2
Ntp182
Rp183
(dp184
g15
I0
sg16
(lp185
g0
(g18
g2
Ntp186
Rp187
(dp188
g22
I9
sg23
I00
sg24
I0
sg25
I3
sg26
I1
sbag0
(g18
g2
Ntp189
Rp190
(dp191
g22
I6
sg23
I00
sg24
I0
sg25
I0
sg26
I0
sbag0
(g18
g2
Ntp192
Rp193
(dp194
g22
I5
sg23
I00
sg24
I0
sg25
I0
sg26
I0
sbag0
(g18
g2
Ntp195
Rp196
(dp197
g22
I6
sg23
I00
sg24
I0
sg25
I0
sg26
I0
sbag0
(g18
g2
Ntp198
Rp199
(dp200
g22
I3
sg23
I00
sg24
I1
sg25
I0
sg26
I3
sbag0
(g18
g2
Ntp201
Rp202
(dp203
g22
I5
sg23
I00
sg24
I0
sg25
I0
sg26
I0
sbag0
(g18
g2
Ntp204
Rp205
(dp206
g22
I0
sg23
I00
sg24
I5
sg25
I0
sg26
I0
sbag0
(g18
g2
Ntp207
Rp208
(dp209
g22
I0
sg23
I00
sg24
I0
sg25
I0
sg26
I0
sbasg45
I8
sbasS'num_of_houses'
p210
I6
sb.